target datalayout = "e-m:e-p270:32:32-p271:32:32-p272:64:64-i64:64-i128:128-f80:128-n8:16:32:64-S128"
target triple = "x86_64-pc-linux-gnu"

%struct.uv_pipe_s = type { ptr, ptr, i32, ptr, [2 x ptr], %union.anon, ptr, i32, i64, ptr, ptr, ptr, ptr, %struct.uv__io_s, [2 x ptr], [2 x ptr], ptr, i32, i32, ptr, i32, ptr }
%union.anon = type { [4 x ptr] }
%struct.uv__io_s = type { ptr, [2 x ptr], [2 x ptr], i32, i32, i32 }
%struct.sockaddr_un = type { i16, [108 x i8] }
%union.__CONST_SOCKADDR_ARG = type { ptr }
%struct.uv_connect_s = type { ptr, i32, [6 x ptr], ptr, ptr, [2 x ptr] }
%struct.uv_loop_s = type { ptr, i32, [2 x ptr], %union.anon.0, ptr, i32, i64, i32, [2 x ptr], [2 x ptr], ptr, i32, i32, [2 x ptr], %union.pthread_mutex_t, %struct.uv_async_s, %union.pthread_rwlock_t, ptr, [2 x ptr], [2 x ptr], [2 x ptr], [2 x ptr], [2 x ptr], ptr, %struct.uv__io_s, i32, %struct.anon, i64, i64, [2 x i32], %struct.uv__io_s, %struct.uv_signal_s, i32, %struct.uv__io_s, ptr, i32 }
%union.anon.0 = type { ptr }
%union.pthread_mutex_t = type { %struct.__pthread_mutex_s }
%struct.__pthread_mutex_s = type { i32, i32, i32, i32, i32, i16, i16, %struct.__pthread_internal_list }
%struct.__pthread_internal_list = type { ptr, ptr }
%struct.uv_async_s = type { ptr, ptr, i32, ptr, [2 x ptr], %union.anon.1, ptr, i32, ptr, [2 x ptr], i32 }
%union.anon.1 = type { [4 x ptr] }
%union.pthread_rwlock_t = type { %struct.__pthread_rwlock_arch_t }
%struct.__pthread_rwlock_arch_t = type { i32, i32, i32, i32, i32, i32, i32, i32, i8, [7 x i8], i64, i32 }
%struct.anon = type { ptr, i32 }
%struct.uv_signal_s = type { ptr, ptr, i32, ptr, [2 x ptr], %union.anon.2, ptr, i32, ptr, i32, %struct.anon.3, i32, i32 }
%union.anon.2 = type { [4 x ptr] }
%struct.anon.3 = type { ptr, ptr, ptr, i32 }

; Function Attrs: nounwind uwtable
define dso_local void @uv_pipe_connect(ptr noundef %0, ptr noundef %1, ptr noundef %2, ptr noundef %3) #0 {
  %5 = alloca ptr, align 8
  %6 = alloca ptr, align 8
  %7 = alloca ptr, align 8
  %8 = alloca ptr, align 8
  %9 = alloca %struct.sockaddr_un, align 2
  %10 = alloca i32, align 4
  %11 = alloca i32, align 4
  %12 = alloca i32, align 4
  %13 = alloca %union.__CONST_SOCKADDR_ARG, align 8
  store ptr %0, ptr %5, align 8, !tbaa !37
  store ptr %1, ptr %6, align 8, !tbaa !9
  store ptr %2, ptr %7, align 8, !tbaa !24
  store ptr %3, ptr %8, align 8, !tbaa !31
  call void @llvm.lifetime.start.p0(i64 110, ptr %9) #8
  call void @llvm.lifetime.start.p0(i64 4, ptr %10) #8
  call void @llvm.lifetime.start.p0(i64 4, ptr %11) #8
  call void @llvm.lifetime.start.p0(i64 4, ptr %12) #8
  %14 = load ptr, ptr %6, align 8, !tbaa !9
  %15 = getelementptr inbounds nuw %struct.uv_pipe_s, ptr %14, i32 0, i32 13
  %16 = getelementptr inbounds nuw %struct.uv__io_s, ptr %15, i32 0, i32 5
  %17 = load i32, ptr %16, align 8, !tbaa !25
  %18 = icmp eq i32 %17, -1
  %19 = zext i1 %18 to i32
  store i32 %19, ptr %10, align 4, !tbaa !11
  %20 = load i32, ptr %10, align 4, !tbaa !11
  %21 = icmp ne i32 %20, 0
  br i1 %21, label %22, label %32

22:                                               ; preds = %4
  %23 = call i32 @uv__socket(i32 noundef 1, i32 noundef 1, i32 noundef 0)
  store i32 %23, ptr %11, align 4, !tbaa !11
  %24 = load i32, ptr %11, align 4, !tbaa !11
  %25 = icmp slt i32 %24, 0
  br i1 %25, label %26, label %27

26:                                               ; preds = %22
  br label %86

27:                                               ; preds = %22
  %28 = load i32, ptr %11, align 4, !tbaa !11
  %29 = load ptr, ptr %6, align 8, !tbaa !9
  %30 = getelementptr inbounds nuw %struct.uv_pipe_s, ptr %29, i32 0, i32 13
  %31 = getelementptr inbounds nuw %struct.uv__io_s, ptr %30, i32 0, i32 5
  store i32 %28, ptr %31, align 8, !tbaa !25
  br label %32

32:                                               ; preds = %27, %4
  call void @llvm.memset.p0.i64(ptr align 2 %9, i8 0, i64 110, i1 false)
  %33 = getelementptr inbounds nuw %struct.sockaddr_un, ptr %9, i32 0, i32 1
  %34 = getelementptr inbounds [108 x i8], ptr %33, i64 0, i64 0
  %35 = load ptr, ptr %7, align 8, !tbaa !24
  %36 = call i64 @uv__strscpy(ptr noundef %34, ptr noundef %35, i64 noundef 108)
  %37 = getelementptr inbounds nuw %struct.sockaddr_un, ptr %9, i32 0, i32 0
  store i16 1, ptr %37, align 2, !tbaa !27
  br label %38

38:                                               ; preds = %53, %32
  %39 = load ptr, ptr %6, align 8, !tbaa !9
  %40 = getelementptr inbounds nuw %struct.uv_pipe_s, ptr %39, i32 0, i32 13
  %41 = getelementptr inbounds nuw %struct.uv__io_s, ptr %40, i32 0, i32 5
  %42 = load i32, ptr %41, align 8, !tbaa !25
  store ptr %9, ptr %13, align 8, !tbaa !30
  %43 = getelementptr inbounds nuw %union.__CONST_SOCKADDR_ARG, ptr %13, i32 0, i32 0
  %44 = load ptr, ptr %43, align 8
  %45 = call i32 @connect(i32 noundef %42, ptr %44, i32 noundef 110)
  store i32 %45, ptr %12, align 4, !tbaa !11
  br label %46

46:                                               ; preds = %38
  %47 = load i32, ptr %12, align 4, !tbaa !11
  %48 = icmp eq i32 %47, -1
  br i1 %48, label %49, label %53

49:                                               ; preds = %46
  %50 = call ptr @__errno_location() #9
  %51 = load i32, ptr %50, align 4, !tbaa !11
  %52 = icmp eq i32 %51, 4
  br label %53

53:                                               ; preds = %49, %46
  %54 = phi i1 [ false, %46 ], [ %52, %49 ]
  br i1 %54, label %38, label %55, !llvm.loop !38

55:                                               ; preds = %53
  %56 = load i32, ptr %12, align 4, !tbaa !11
  %57 = icmp eq i32 %56, -1
  br i1 %57, label %58, label %66

58:                                               ; preds = %55
  %59 = call ptr @__errno_location() #9
  %60 = load i32, ptr %59, align 4, !tbaa !11
  %61 = icmp ne i32 %60, 115
  br i1 %61, label %62, label %66

62:                                               ; preds = %58
  %63 = call ptr @__errno_location() #9
  %64 = load i32, ptr %63, align 4, !tbaa !11
  %65 = sub nsw i32 0, %64
  store i32 %65, ptr %11, align 4, !tbaa !11
  br label %86

66:                                               ; preds = %58, %55
  store i32 0, ptr %11, align 4, !tbaa !11
  %67 = load i32, ptr %10, align 4, !tbaa !11
  %68 = icmp ne i32 %67, 0
  br i1 %68, label %69, label %76

69:                                               ; preds = %66
  %70 = load ptr, ptr %6, align 8, !tbaa !9
  %71 = load ptr, ptr %6, align 8, !tbaa !9
  %72 = getelementptr inbounds nuw %struct.uv_pipe_s, ptr %71, i32 0, i32 13
  %73 = getelementptr inbounds nuw %struct.uv__io_s, ptr %72, i32 0, i32 5
  %74 = load i32, ptr %73, align 8, !tbaa !25
  %75 = call i32 @uv__stream_open(ptr noundef %70, i32 noundef %74, i32 noundef 49152)
  store i32 %75, ptr %11, align 4, !tbaa !11
  br label %76

76:                                               ; preds = %69, %66
  %77 = load i32, ptr %11, align 4, !tbaa !11
  %78 = icmp eq i32 %77, 0
  br i1 %78, label %79, label %85

79:                                               ; preds = %76
  %80 = load ptr, ptr %6, align 8, !tbaa !9
  %81 = getelementptr inbounds nuw %struct.uv_pipe_s, ptr %80, i32 0, i32 1
  %82 = load ptr, ptr %81, align 8, !tbaa !34
  %83 = load ptr, ptr %6, align 8, !tbaa !9
  %84 = getelementptr inbounds nuw %struct.uv_pipe_s, ptr %83, i32 0, i32 13
  call void @uv__io_start(ptr noundef %82, ptr noundef %84, i32 noundef 4)
  br label %85

85:                                               ; preds = %79, %76
  br label %86

86:                                               ; preds = %85, %62, %26
  %87 = load i32, ptr %11, align 4, !tbaa !11
  %88 = load ptr, ptr %6, align 8, !tbaa !9
  %89 = getelementptr inbounds nuw %struct.uv_pipe_s, ptr %88, i32 0, i32 17
  store i32 %87, ptr %89, align 8, !tbaa !39
  %90 = load ptr, ptr %5, align 8, !tbaa !37
  %91 = load ptr, ptr %6, align 8, !tbaa !9
  %92 = getelementptr inbounds nuw %struct.uv_pipe_s, ptr %91, i32 0, i32 11
  store ptr %90, ptr %92, align 8, !tbaa !21
  br label %93

93:                                               ; preds = %86
  br label %94

94:                                               ; preds = %93
  %95 = load ptr, ptr %5, align 8, !tbaa !37
  %96 = getelementptr inbounds nuw %struct.uv_connect_s, ptr %95, i32 0, i32 1
  store i32 2, ptr %96, align 8, !tbaa !40
  br label %97

97:                                               ; preds = %94
  br label %98

98:                                               ; preds = %97
  br label %99

99:                                               ; preds = %98
  %100 = load ptr, ptr %6, align 8, !tbaa !9
  %101 = getelementptr inbounds nuw %struct.uv_pipe_s, ptr %100, i32 0, i32 1
  %102 = load ptr, ptr %101, align 8, !tbaa !34
  %103 = getelementptr inbounds nuw %struct.uv_loop_s, ptr %102, i32 0, i32 3
  %104 = load i32, ptr %103, align 8, !tbaa !30
  %105 = add i32 %104, 1
  store i32 %105, ptr %103, align 8, !tbaa !30
  br label %106

106:                                              ; preds = %99
  br label %107

107:                                              ; preds = %106
  br label %108

108:                                              ; preds = %107
  br label %109

109:                                              ; preds = %108
  %110 = load ptr, ptr %6, align 8, !tbaa !9
  %111 = load ptr, ptr %5, align 8, !tbaa !37
  %112 = getelementptr inbounds nuw %struct.uv_connect_s, ptr %111, i32 0, i32 4
  store ptr %110, ptr %112, align 8, !tbaa !43
  %113 = load ptr, ptr %8, align 8, !tbaa !31
  %114 = load ptr, ptr %5, align 8, !tbaa !37
  %115 = getelementptr inbounds nuw %struct.uv_connect_s, ptr %114, i32 0, i32 3
  store ptr %113, ptr %115, align 8, !tbaa !44
  br label %116

116:                                              ; preds = %109
  %117 = load ptr, ptr %5, align 8, !tbaa !37
  %118 = getelementptr inbounds nuw %struct.uv_connect_s, ptr %117, i32 0, i32 5
  %119 = load ptr, ptr %5, align 8, !tbaa !37
  %120 = getelementptr inbounds nuw %struct.uv_connect_s, ptr %119, i32 0, i32 5
  %121 = getelementptr inbounds [2 x ptr], ptr %120, i64 0, i64 0
  store ptr %118, ptr %121, align 8, !tbaa !31
  %122 = load ptr, ptr %5, align 8, !tbaa !37
  %123 = getelementptr inbounds nuw %struct.uv_connect_s, ptr %122, i32 0, i32 5
  %124 = load ptr, ptr %5, align 8, !tbaa !37
  %125 = getelementptr inbounds nuw %struct.uv_connect_s, ptr %124, i32 0, i32 5
  %126 = getelementptr inbounds [2 x ptr], ptr %125, i64 0, i64 1
  store ptr %123, ptr %126, align 8, !tbaa !31
  br label %127

127:                                              ; preds = %116
  br label %128

128:                                              ; preds = %127
  %129 = load i32, ptr %11, align 4, !tbaa !11
  %130 = icmp ne i32 %129, 0
  br i1 %130, label %131, label %137

131:                                              ; preds = %128
  %132 = load ptr, ptr %6, align 8, !tbaa !9
  %133 = getelementptr inbounds nuw %struct.uv_pipe_s, ptr %132, i32 0, i32 1
  %134 = load ptr, ptr %133, align 8, !tbaa !34
  %135 = load ptr, ptr %6, align 8, !tbaa !9
  %136 = getelementptr inbounds nuw %struct.uv_pipe_s, ptr %135, i32 0, i32 13
  call void @uv__io_feed(ptr noundef %134, ptr noundef %136)
  br label %137

137:                                              ; preds = %131, %128
  call void @llvm.lifetime.end.p0(i64 4, ptr %12) #8
  call void @llvm.lifetime.end.p0(i64 4, ptr %11) #8
  call void @llvm.lifetime.end.p0(i64 4, ptr %10) #8
  call void @llvm.lifetime.end.p0(i64 110, ptr %9) #8
  ret void
}