; Function Attrs: nounwind uwtable
define dso_local void @uv_pipe_connect(ptr noundef %0, ptr noundef %1, ptr noundef %2, ptr noundef %3) local_unnamed_addr #0 {
  %5 = alloca %struct.sockaddr_un, align 2
  call void @llvm.lifetime.start.p0(i64 110, ptr nonnull %5) #11
  %6 = getelementptr inbounds nuw i8, ptr %1, i64 136
  %7 = getelementptr inbounds nuw i8, ptr %1, i64 184
  %8 = load i32, ptr %7, align 8, !tbaa !18
  %9 = icmp eq i32 %8, -1
  br i1 %9, label %10, label %14

10:                                               ; preds = %4
  %11 = tail call i32 @uv__socket(i32 noundef 1, i32 noundef 1, i32 noundef 0) #11
  %12 = icmp slt i32 %11, 0
  br i1 %12, label %32, label %13

13:                                               ; preds = %10
  store i32 %11, ptr %7, align 8, !tbaa !18
  br label %14

14:                                               ; preds = %13, %4
  call void @llvm.memset.p0.i64(ptr noundef nonnull align 2 dereferenceable(110) %5, i8 0, i64 110, i1 false)
  %15 = getelementptr inbounds nuw i8, ptr %5, i64 2
  %16 = call i64 @uv__strscpy(ptr noundef nonnull %15, ptr noundef %2, i64 noundef 108) #11
  store i16 1, ptr %5, align 2, !tbaa !20
  br label %17

17:                                               ; preds = %21, %14
  %18 = load i32, ptr %7, align 8, !tbaa !18
  %19 = call i32 @connect(i32 noundef %18, ptr nonnull %5, i32 noundef 110) #11
  %20 = icmp eq i32 %19, -1
  br i1 %20, label %21, label %.critedge35

21:                                               ; preds = %17
  %22 = tail call ptr @__errno_location() #12
  %23 = load i32, ptr %22, align 4, !tbaa !23
  switch i32 %23, label %24 [
    i32 4, label %17
    i32 115, label %.critedge35
  ]

24:                                               ; preds = %21
  %25 = sub nsw i32 0, %23
  br label %32

.critedge35:                                      ; preds = %21, %17
  br i1 %9, label %26, label %.thread

26:                                               ; preds = %.critedge35
  %27 = load i32, ptr %7, align 8, !tbaa !18
  %28 = call i32 @uv__stream_open(ptr noundef nonnull %1, i32 noundef %27, i32 noundef 49152) #11
  %29 = icmp eq i32 %28, 0
  br i1 %29, label %.thread, label %32

.thread:                                          ; preds = %.critedge35, %26
  %30 = getelementptr inbounds nuw i8, ptr %1, i64 8
  %31 = load ptr, ptr %30, align 8, !tbaa !26
  call void @uv__io_start(ptr noundef %31, ptr noundef nonnull %6, i32 noundef 4) #11
  br label %32

32:                                               ; preds = %26, %.thread, %10, %24
  %.0 = phi i32 [ %11, %10 ], [ %25, %24 ], [ 0, %.thread ], [ %28, %26 ]
  %33 = getelementptr inbounds nuw i8, ptr %1, i64 232
  store i32 %.0, ptr %33, align 8, !tbaa !29
  %34 = getelementptr inbounds nuw i8, ptr %1, i64 120
  store ptr %0, ptr %34, align 8, !tbaa !30
  %35 = getelementptr inbounds nuw i8, ptr %0, i64 8
  store i32 2, ptr %35, align 8, !tbaa !31
  %36 = getelementptr inbounds nuw i8, ptr %1, i64 8
  %37 = load ptr, ptr %36, align 8, !tbaa !26
  %38 = getelementptr inbounds nuw i8, ptr %37, i64 32
  %39 = load i32, ptr %38, align 8, !tbaa !34
  %40 = add i32 %39, 1
  store i32 %40, ptr %38, align 8, !tbaa !34
  %41 = getelementptr inbounds nuw i8, ptr %0, i64 72
  store ptr %1, ptr %41, align 8, !tbaa !35
  %42 = getelementptr inbounds nuw i8, ptr %0, i64 64
  store ptr %3, ptr %42, align 8, !tbaa !36
  %43 = getelementptr inbounds nuw i8, ptr %0, i64 80
  store ptr %43, ptr %43, align 8, !tbaa !37
  %44 = getelementptr inbounds nuw i8, ptr %0, i64 88
  store ptr %43, ptr %44, align 8, !tbaa !37
  %.not34 = icmp eq i32 %.0, 0
  br i1 %.not34, label %47, label %45

45:                                               ; preds = %32
  %46 = load ptr, ptr %36, align 8, !tbaa !26
  call void @uv__io_feed(ptr noundef %46, ptr noundef nonnull %6) #11
  br label %47

47:                                               ; preds = %45, %32
  call void @llvm.lifetime.end.p0(i64 110, ptr nonnull %5) #11
  ret void
}